; Function Attrs: nounwind uwtable
define ptr @l_Lean_LocalContext_findDeclM_x3f___at_Lean_Meta_substVar___spec__1___boxed(ptr noundef %0, ptr noundef %1, ptr noundef %2, ptr noundef %3, ptr noundef %4, ptr noundef %5, ptr noundef %6) local_unnamed_addr #0 {
  %8 = getelementptr inbounds nuw i8, ptr %1, i64 16
  %9 = load ptr, ptr %8, align 8, !tbaa !11
  %10 = tail call ptr @l_Lean_PersistentArray_findSomeM_x3f___at_Lean_Meta_substVar___spec__2(ptr noundef %0, ptr noundef %9, ptr noundef %2, ptr noundef %3, ptr noundef %4, ptr noundef %5, ptr noundef %6)
  %11 = ptrtoint ptr %1 to i64
  %12 = and i64 %11, 1
  %.not = icmp eq i64 %12, 0
  br i1 %.not, label %13, label %lean_dec.exit10

13:                                               ; preds = %7
  %14 = load i32, ptr %1, align 4, !tbaa !5
  %15 = icmp sgt i32 %14, 1
  br i1 %15, label %16, label %18, !prof !10

16:                                               ; preds = %13
  %17 = add nsw i32 %14, -1
  store i32 %17, ptr %1, align 4, !tbaa !5
  br label %lean_dec.exit10

18:                                               ; preds = %13
  %.not.i = icmp eq i32 %14, 0
  br i1 %.not.i, label %lean_dec.exit10, label %19

19:                                               ; preds = %18
  tail call void @lean_dec_ref_cold(ptr noundef nonnull %1) #4
  br label %lean_dec.exit10

lean_dec.exit10:                                  ; preds = %19, %18, %16, %7
  %20 = ptrtoint ptr %0 to i64
  %21 = and i64 %20, 1
  %.not13 = icmp eq i64 %21, 0
  br i1 %.not13, label %22, label %lean_dec.exit

22:                                               ; preds = %lean_dec.exit10
  %23 = load i32, ptr %0, align 4, !tbaa !5
  %24 = icmp sgt i32 %23, 1
  br i1 %24, label %25, label %27, !prof !10

25:                                               ; preds = %22
  %26 = add nsw i32 %23, -1
  store i32 %26, ptr %0, align 4, !tbaa !5
  br label %lean_dec.exit

27:                                               ; preds = %22
  %.not.i11 = icmp eq i32 %23, 0
  br i1 %.not.i11, label %lean_dec.exit, label %28

28:                                               ; preds = %27
  tail call void @lean_dec_ref_cold(ptr noundef nonnull %0) #4
  br label %lean_dec.exit

lean_dec.exit:                                    ; preds = %28, %27, %25, %lean_dec.exit10
  ret ptr %10
}